target datalayout = "e-m:e-p270:32:32-p271:32:32-p272:64:64-i64:64-i128:128-f80:128-n8:16:32:64-S128"
target triple = "x86_64-pc-linux-gnu"

%class.V3ErrorCode = type { i8 }
%class.VNType = type { i16 }
%class.AstNode = type { ptr, ptr, ptr, ptr, ptr, ptr, ptr, ptr, %class.VNType, %struct.anon, i8, i32, ptr, ptr, ptr, ptr, %class.VNUser, i32, i32, %class.VNUser, %class.VNUser, i32, i32, %class.VNUser }
%struct.anon = type { i8 }
%class.VNUser = type { %union.anon.3 }
%union.anon.3 = type { ptr }

@.str.557 = private unnamed_addr constant [111 x i8] c"generated/home/dtcxzyw/WorkSpace/Projects/compilers/llvm-opt-benchmark/bench/verilator/verilator/src/V3Ast.cpp\00", align 1
@.str.558 = private unnamed_addr constant [37 x i8] c"abovep() not allowed when in midlist\00", align 1

; Function Attrs: mustprogress nounwind uwtable
define linkonce_odr dso_local noundef ptr @_ZNK7AstNode5nextpEv(ptr noundef nonnull align 8 dereferenceable(152) %0) #5 comdat align 2 {
  %2 = alloca ptr, align 8
  store ptr %0, ptr %2, align 8
  %3 = load ptr, ptr %2, align 8
  %4 = getelementptr inbounds %class.AstNode, ptr %3, i32 0, i32 1
  %5 = load ptr, ptr %4, align 8
  ret ptr %5
}

; Function Attrs: mustprogress nounwind uwtable
define linkonce_odr dso_local noundef ptr @_ZNK7AstNode5backpEv(ptr noundef nonnull align 8 dereferenceable(152) %0) #5 comdat align 2 {
  %2 = alloca ptr, align 8
  store ptr %0, ptr %2, align 8
  %3 = load ptr, ptr %2, align 8
  %4 = getelementptr inbounds %class.AstNode, ptr %3, i32 0, i32 2
  %5 = load ptr, ptr %4, align 8
  ret ptr %5
}

; Function Attrs: mustprogress nounwind uwtable
define linkonce_odr dso_local void @_ZN11V3ErrorCodeC2ENS_2enE(ptr noundef nonnull align 1 dereferenceable(1) %0, i8 noundef zeroext %1) unnamed_addr #5 comdat align 2 {
  %3 = alloca ptr, align 8
  %4 = alloca i8, align 1
  store ptr %0, ptr %3, align 8
  store i8 %1, ptr %4, align 1
  %5 = load ptr, ptr %3, align 8
  %6 = getelementptr inbounds %class.V3ErrorCode, ptr %5, i32 0, i32 0
  %7 = load i8, ptr %4, align 1
  store i8 %7, ptr %6, align 1
  ret void
}

; Function Attrs: mustprogress uwtable
define linkonce_odr dso_local noundef ptr @_ZNK7AstNode11firstAbovepEv(ptr noundef nonnull align 8 dereferenceable(152) %0) #4 comdat align 2 {
  %2 = alloca ptr, align 8
  store ptr %0, ptr %2, align 8
  %3 = load ptr, ptr %2, align 8
  %4 = call noundef ptr @_ZNK7AstNode5backpEv(ptr noundef nonnull align 8 dereferenceable(152) %3)
  %5 = icmp ne ptr %4, null
  br i1 %5, label %6, label %12

6:                                                ; preds = %1
  %7 = call noundef ptr @_ZNK7AstNode5backpEv(ptr noundef nonnull align 8 dereferenceable(152) %3)
  %8 = call noundef ptr @_ZNK7AstNode5nextpEv(ptr noundef nonnull align 8 dereferenceable(152) %7)
  %9 = icmp ne ptr %8, %3
  br i1 %9, label %10, label %12

10:                                               ; preds = %6
  %11 = call noundef ptr @_ZNK7AstNode5backpEv(ptr noundef nonnull align 8 dereferenceable(152) %3)
  br label %13

12:                                               ; preds = %6, %1
  br label %13

13:                                               ; preds = %12, %10
  %14 = phi ptr [ %11, %10 ], [ null, %12 ]
  ret ptr %14
}

; Function Attrs: mustprogress uwtable
define dso_local noundef ptr @_ZNK7AstNode6abovepEv(ptr noundef nonnull align 8 dereferenceable(152) %0) #4 align 2 {
  %2 = alloca ptr, align 8
  %3 = alloca %class.V3ErrorCode, align 1
  %4 = alloca ptr, align 8
  store ptr %0, ptr %2, align 8
  %5 = load ptr, ptr %2, align 8
  br label %6

6:                                                ; preds = %1
  %7 = getelementptr inbounds %class.AstNode, ptr %5, i32 0, i32 1
  %8 = load ptr, ptr %7, align 8
  %9 = icmp ne ptr %8, null
  br i1 %9, label %10, label %13

10:                                               ; preds = %6
  %11 = call noundef ptr @_ZNK7AstNode11firstAbovepEv(ptr noundef nonnull align 8 dereferenceable(152) %5)
  %12 = icmp ne ptr %11, null
  br label %13

13:                                               ; preds = %10, %6
  %14 = phi i1 [ true, %6 ], [ %12, %10 ]
  %15 = xor i1 %14, true
  %16 = xor i1 %15, true
  %17 = xor i1 %16, true
  br i1 %17, label %18, label %24

18:                                               ; preds = %13
  call void @_ZN11V3ErrorCodeC2ENS_2enE(ptr noundef nonnull align 1 dereferenceable(1) %3, i8 noundef zeroext 4)
  %19 = getelementptr inbounds %class.V3ErrorCode, ptr %3, i32 0, i32 0
  %20 = load i8, ptr %19, align 1
  %21 = call noundef nonnull align 8 dereferenceable(112) ptr @_ZN7V3Error19v3errorPrepFileLineB5cxx11E11V3ErrorCodePKcib(i8 %20, ptr noundef @.str.557, i32 noundef 92, i1 noundef zeroext false)
  %22 = call noundef nonnull align 8 dereferenceable(112) ptr @_ZN7V3Error10v3errorStrB5cxx11Ev()
  %23 = call noundef nonnull align 8 dereferenceable(8) ptr @_ZStlsISt11char_traitsIcEERSt13basic_ostreamIcT_ES5_PKc(ptr noundef nonnull align 8 dereferenceable(8) %22, ptr noundef @.str.558)
  call void @_ZNK7AstNode15v3errorEndFatalERNSt7__cxx1119basic_ostringstreamIcSt11char_traitsIcESaIcEEE(ptr noundef nonnull align 8 dereferenceable(152) %5, ptr noundef nonnull align 8 dereferenceable(112) %23) #17
  unreachable

24:                                               ; preds = %13
  br label %25

25:                                               ; preds = %24
  %26 = call noundef ptr @_ZNK7AstNode11firstAbovepEv(ptr noundef nonnull align 8 dereferenceable(152) %5)
  %27 = icmp ne ptr %26, null
  br i1 %27, label %28, label %29

28:                                               ; preds = %25
  br label %32

29:                                               ; preds = %25
  %30 = getelementptr inbounds %class.AstNode, ptr %5, i32 0, i32 13
  %31 = load ptr, ptr %30, align 8
  br label %32

32:                                               ; preds = %29, %28
  %33 = phi ptr [ %5, %28 ], [ %31, %29 ]
  store ptr %33, ptr %4, align 8
  %34 = load ptr, ptr %4, align 8
  %35 = call noundef ptr @_ZNK7AstNode5backpEv(ptr noundef nonnull align 8 dereferenceable(152) %34)
  ret ptr %35
}